
dctflt:     file format elf64-x86-64


Disassembly of section .init:

00000000004004a8 <_init>:
  4004a8:	48 83 ec 08          	sub    rsp,0x8
  4004ac:	e8 ab 00 00 00       	call   40055c <call_gmon_start>
  4004b1:	48 83 c4 08          	add    rsp,0x8
  4004b5:	c3                   	ret    

Disassembly of section .plt:

00000000004004c0 <putchar@plt-0x10>:
  4004c0:	ff 35 2a 1b 20 00    	push   QWORD PTR [rip+0x201b2a]        # 601ff0 <_GLOBAL_OFFSET_TABLE_+0x8>
  4004c6:	ff 25 2c 1b 20 00    	jmp    QWORD PTR [rip+0x201b2c]        # 601ff8 <_GLOBAL_OFFSET_TABLE_+0x10>
  4004cc:	0f 1f 40 00          	nop    DWORD PTR [rax+0x0]

00000000004004d0 <putchar@plt>:
  4004d0:	ff 25 2a 1b 20 00    	jmp    QWORD PTR [rip+0x201b2a]        # 602000 <_GLOBAL_OFFSET_TABLE_+0x18>
  4004d6:	68 00 00 00 00       	push   0x0
  4004db:	e9 e0 ff ff ff       	jmp    4004c0 <_init+0x18>

00000000004004e0 <puts@plt>:
  4004e0:	ff 25 22 1b 20 00    	jmp    QWORD PTR [rip+0x201b22]        # 602008 <_GLOBAL_OFFSET_TABLE_+0x20>
  4004e6:	68 01 00 00 00       	push   0x1
  4004eb:	e9 d0 ff ff ff       	jmp    4004c0 <_init+0x18>

00000000004004f0 <printf@plt>:
  4004f0:	ff 25 1a 1b 20 00    	jmp    QWORD PTR [rip+0x201b1a]        # 602010 <_GLOBAL_OFFSET_TABLE_+0x28>
  4004f6:	68 02 00 00 00       	push   0x2
  4004fb:	e9 c0 ff ff ff       	jmp    4004c0 <_init+0x18>

0000000000400500 <memset@plt>:
  400500:	ff 25 12 1b 20 00    	jmp    QWORD PTR [rip+0x201b12]        # 602018 <_GLOBAL_OFFSET_TABLE_+0x30>
  400506:	68 03 00 00 00       	push   0x3
  40050b:	e9 b0 ff ff ff       	jmp    4004c0 <_init+0x18>

0000000000400510 <__libc_start_main@plt>:
  400510:	ff 25 0a 1b 20 00    	jmp    QWORD PTR [rip+0x201b0a]        # 602020 <_GLOBAL_OFFSET_TABLE_+0x38>
  400516:	68 04 00 00 00       	push   0x4
  40051b:	e9 a0 ff ff ff       	jmp    4004c0 <_init+0x18>

0000000000400520 <sprintf@plt>:
  400520:	ff 25 02 1b 20 00    	jmp    QWORD PTR [rip+0x201b02]        # 602028 <_GLOBAL_OFFSET_TABLE_+0x40>
  400526:	68 05 00 00 00       	push   0x5
  40052b:	e9 90 ff ff ff       	jmp    4004c0 <_init+0x18>

Disassembly of section .text:

0000000000400530 <_start>:
  400530:	31 ed                	xor    ebp,ebp
  400532:	49 89 d1             	mov    r9,rdx
  400535:	5e                   	pop    rsi
  400536:	48 89 e2             	mov    rdx,rsp
  400539:	48 83 e4 f0          	and    rsp,0xfffffffffffffff0
  40053d:	50                   	push   rax
  40053e:	54                   	push   rsp
  40053f:	49 c7 c0 10 0d 40 00 	mov    r8,0x400d10
  400546:	48 c7 c1 80 0c 40 00 	mov    rcx,0x400c80
  40054d:	48 c7 c7 5b 07 40 00 	mov    rdi,0x40075b
  400554:	e8 b7 ff ff ff       	call   400510 <__libc_start_main@plt>
  400559:	f4                   	hlt    
  40055a:	90                   	nop
  40055b:	90                   	nop

000000000040055c <call_gmon_start>:
  40055c:	48 83 ec 08          	sub    rsp,0x8
  400560:	48 8b 05 79 1a 20 00 	mov    rax,QWORD PTR [rip+0x201a79]        # 601fe0 <_DYNAMIC+0x1d0>
  400567:	48 85 c0             	test   rax,rax
  40056a:	74 02                	je     40056e <call_gmon_start+0x12>
  40056c:	ff d0                	call   rax
  40056e:	48 83 c4 08          	add    rsp,0x8
  400572:	c3                   	ret    
  400573:	90                   	nop
  400574:	90                   	nop
  400575:	90                   	nop
  400576:	90                   	nop
  400577:	90                   	nop
  400578:	90                   	nop
  400579:	90                   	nop
  40057a:	90                   	nop
  40057b:	90                   	nop
  40057c:	90                   	nop
  40057d:	90                   	nop
  40057e:	90                   	nop
  40057f:	90                   	nop

0000000000400580 <deregister_tm_clones>:
  400580:	b8 47 20 60 00       	mov    eax,0x602047
  400585:	55                   	push   rbp
  400586:	48 2d 40 20 60 00    	sub    rax,0x602040
  40058c:	48 83 f8 0e          	cmp    rax,0xe
  400590:	48 89 e5             	mov    rbp,rsp
  400593:	77 02                	ja     400597 <deregister_tm_clones+0x17>
  400595:	5d                   	pop    rbp
  400596:	c3                   	ret    
  400597:	b8 00 00 00 00       	mov    eax,0x0
  40059c:	48 85 c0             	test   rax,rax
  40059f:	74 f4                	je     400595 <deregister_tm_clones+0x15>
  4005a1:	5d                   	pop    rbp
  4005a2:	bf 40 20 60 00       	mov    edi,0x602040
  4005a7:	ff e0                	jmp    rax
  4005a9:	0f 1f 80 00 00 00 00 	nop    DWORD PTR [rax+0x0]

00000000004005b0 <register_tm_clones>:
  4005b0:	b8 40 20 60 00       	mov    eax,0x602040
  4005b5:	55                   	push   rbp
  4005b6:	48 2d 40 20 60 00    	sub    rax,0x602040
  4005bc:	48 c1 f8 03          	sar    rax,0x3
  4005c0:	48 89 e5             	mov    rbp,rsp
  4005c3:	48 89 c2             	mov    rdx,rax
  4005c6:	48 c1 ea 3f          	shr    rdx,0x3f
  4005ca:	48 01 d0             	add    rax,rdx
  4005cd:	48 d1 f8             	sar    rax,1
  4005d0:	75 02                	jne    4005d4 <register_tm_clones+0x24>
  4005d2:	5d                   	pop    rbp
  4005d3:	c3                   	ret    
  4005d4:	ba 00 00 00 00       	mov    edx,0x0
  4005d9:	48 85 d2             	test   rdx,rdx
  4005dc:	74 f4                	je     4005d2 <register_tm_clones+0x22>
  4005de:	5d                   	pop    rbp
  4005df:	48 89 c6             	mov    rsi,rax
  4005e2:	bf 40 20 60 00       	mov    edi,0x602040
  4005e7:	ff e2                	jmp    rdx
  4005e9:	0f 1f 80 00 00 00 00 	nop    DWORD PTR [rax+0x0]

00000000004005f0 <__do_global_dtors_aux>:
  4005f0:	80 3d 49 1a 20 00 00 	cmp    BYTE PTR [rip+0x201a49],0x0        # 602040 <__bss_start>
  4005f7:	75 11                	jne    40060a <__do_global_dtors_aux+0x1a>
  4005f9:	55                   	push   rbp
  4005fa:	48 89 e5             	mov    rbp,rsp
  4005fd:	e8 7e ff ff ff       	call   400580 <deregister_tm_clones>
  400602:	5d                   	pop    rbp
  400603:	c6 05 36 1a 20 00 01 	mov    BYTE PTR [rip+0x201a36],0x1        # 602040 <__bss_start>
  40060a:	f3 c3                	repz ret 
  40060c:	0f 1f 40 00          	nop    DWORD PTR [rax+0x0]

0000000000400610 <frame_dummy>:
  400610:	48 83 3d f0 17 20 00 	cmp    QWORD PTR [rip+0x2017f0],0x0        # 601e08 <__JCR_END__>
  400617:	00 
  400618:	74 1e                	je     400638 <frame_dummy+0x28>
  40061a:	b8 00 00 00 00       	mov    eax,0x0
  40061f:	48 85 c0             	test   rax,rax
  400622:	74 14                	je     400638 <frame_dummy+0x28>
  400624:	55                   	push   rbp
  400625:	bf 08 1e 60 00       	mov    edi,0x601e08
  40062a:	48 89 e5             	mov    rbp,rsp
  40062d:	ff d0                	call   rax
  40062f:	5d                   	pop    rbp
  400630:	e9 7b ff ff ff       	jmp    4005b0 <register_tm_clones>
  400635:	0f 1f 00             	nop    DWORD PTR [rax]
  400638:	e9 73 ff ff ff       	jmp    4005b0 <register_tm_clones>
  40063d:	90                   	nop
  40063e:	90                   	nop
  40063f:	90                   	nop

0000000000400640 <dump_reg_ymm>:
  400640:	55                   	push   rbp
  400641:	48 89 e5             	mov    rbp,rsp
  400644:	48 83 ec 20          	sub    rsp,0x20
  400648:	48 89 7d e8          	mov    QWORD PTR [rbp-0x18],rdi
  40064c:	c7 45 fc 00 00 00 00 	mov    DWORD PTR [rbp-0x4],0x0
  400653:	e9 a7 00 00 00       	jmp    4006ff <dump_reg_ymm+0xbf>
  400658:	8b 45 fc             	mov    eax,DWORD PTR [rbp-0x4]
  40065b:	48 98                	cdqe   
  40065d:	48 8d 14 85 00 00 00 	lea    rdx,[rax*4+0x0]
  400664:	00 
  400665:	48 8b 45 e8          	mov    rax,QWORD PTR [rbp-0x18]
  400669:	48 01 d0             	add    rax,rdx
  40066c:	f3 0f 10 00          	movss  xmm0,DWORD PTR [rax]
  400670:	0f 2e 05 31 07 00 00 	ucomiss xmm0,DWORD PTR [rip+0x731]        # 400da8 <_IO_stdin_used+0x88>
  400677:	77 25                	ja     40069e <dump_reg_ymm+0x5e>
  400679:	8b 45 fc             	mov    eax,DWORD PTR [rbp-0x4]
  40067c:	48 98                	cdqe   
  40067e:	48 8d 14 85 00 00 00 	lea    rdx,[rax*4+0x0]
  400685:	00 
  400686:	48 8b 45 e8          	mov    rax,QWORD PTR [rbp-0x18]
  40068a:	48 01 d0             	add    rax,rdx
  40068d:	f3 0f 10 08          	movss  xmm1,DWORD PTR [rax]
  400691:	f3 0f 10 05 13 07 00 	movss  xmm0,DWORD PTR [rip+0x713]        # 400dac <_IO_stdin_used+0x8c>
  400698:	00 
  400699:	0f 2e c1             	ucomiss xmm0,xmm1
  40069c:	76 11                	jbe    4006af <dump_reg_ymm+0x6f>
  40069e:	bf 28 0d 40 00       	mov    edi,0x400d28
  4006a3:	b8 00 00 00 00       	mov    eax,0x0
  4006a8:	e8 43 fe ff ff       	call   4004f0 <printf@plt>
  4006ad:	eb 4c                	jmp    4006fb <dump_reg_ymm+0xbb>
  4006af:	8b 45 fc             	mov    eax,DWORD PTR [rbp-0x4]
  4006b2:	48 98                	cdqe   
  4006b4:	48 8d 14 85 00 00 00 	lea    rdx,[rax*4+0x0]
  4006bb:	00 
  4006bc:	48 8b 45 e8          	mov    rax,QWORD PTR [rbp-0x18]
  4006c0:	48 01 d0             	add    rax,rdx
  4006c3:	f3 0f 10 00          	movss  xmm0,DWORD PTR [rax]
  4006c7:	0f 14 c0             	unpcklps xmm0,xmm0
  4006ca:	0f 5a c0             	cvtps2pd xmm0,xmm0
  4006cd:	f2 0f 10 0d db 06 00 	movsd  xmm1,QWORD PTR [rip+0x6db]        # 400db0 <_IO_stdin_used+0x90>
  4006d4:	00 
  4006d5:	f2 0f 5c c1          	subsd  xmm0,xmm1
  4006d9:	f2 0f 2c c0          	cvttsd2si eax,xmm0
  4006dd:	48 98                	cdqe   
  4006df:	48 c1 e0 04          	shl    rax,0x4
  4006e3:	48 05 60 20 60 00    	add    rax,0x602060
  4006e9:	48 89 c6             	mov    rsi,rax
  4006ec:	bf 2d 0d 40 00       	mov    edi,0x400d2d
  4006f1:	b8 00 00 00 00       	mov    eax,0x0
  4006f6:	e8 f5 fd ff ff       	call   4004f0 <printf@plt>
  4006fb:	83 45 fc 01          	add    DWORD PTR [rbp-0x4],0x1
  4006ff:	83 7d fc 07          	cmp    DWORD PTR [rbp-0x4],0x7
  400703:	0f 8e 4f ff ff ff    	jle    400658 <dump_reg_ymm+0x18>
  400709:	bf 0a 00 00 00       	mov    edi,0xa
  40070e:	e8 bd fd ff ff       	call   4004d0 <putchar@plt>
  400713:	c9                   	leave  
  400714:	c3                   	ret    

0000000000400715 <supports_avx2>:
  400715:	55                   	push   rbp
  400716:	48 89 e5             	mov    rbp,rsp
  400719:	c7 45 fc 00 00 00 00 	mov    DWORD PTR [rbp-0x4],0x0
  400720:	50                   	push   rax
  400721:	51                   	push   rcx
  400722:	53                   	push   rbx
  400723:	b8 01 00 00 00       	mov    eax,0x1
  400728:	0f a2                	cpuid  
  40072a:	81 e1 00 00 00 18    	and    ecx,0x18000000
  400730:	09 4d fc             	or     DWORD PTR [rbp-0x4],ecx
  400733:	b8 07 00 00 00       	mov    eax,0x7
  400738:	b9 00 00 00 00       	mov    ecx,0x0
  40073d:	0f a2                	cpuid  
  40073f:	83 e3 20             	and    ebx,0x20
  400742:	09 5d fc             	or     DWORD PTR [rbp-0x4],ebx
  400745:	b9 00 00 00 00       	mov    ecx,0x0
  40074a:	0f 01 d0             	xgetbv 
  40074d:	83 e0 06             	and    eax,0x6
  400750:	09 45 fc             	or     DWORD PTR [rbp-0x4],eax
  400753:	5b                   	pop    rbx
  400754:	59                   	pop    rcx
  400755:	58                   	pop    rax
  400756:	8b 45 fc             	mov    eax,DWORD PTR [rbp-0x4]
  400759:	5d                   	pop    rbp
  40075a:	c3                   	ret    

000000000040075b <main>:
  40075b:	55                   	push   rbp
  40075c:	48 89 e5             	mov    rbp,rsp
  40075f:	48 83 ec 30          	sub    rsp,0x30
  400763:	c6 45 db 00          	mov    BYTE PTR [rbp-0x25],0x0
  400767:	ba 20 01 00 00       	mov    edx,0x120
  40076c:	be 00 00 00 00       	mov    esi,0x0
  400771:	bf 80 24 60 00       	mov    edi,0x602480
  400776:	e8 85 fd ff ff       	call   400500 <memset@plt>
  40077b:	48 c7 45 e8 e0 ff ff 	mov    QWORD PTR [rbp-0x18],0xffffffffffffffe0
  400782:	ff 
  400783:	b8 80 25 60 00       	mov    eax,0x602580
  400788:	48 23 45 e8          	and    rax,QWORD PTR [rbp-0x18]
  40078c:	48 89 45 f0          	mov    QWORD PTR [rbp-0x10],rax
  400790:	b8 00 00 00 00       	mov    eax,0x0
  400795:	e8 7b ff ff ff       	call   400715 <supports_avx2>
  40079a:	89 45 e0             	mov    DWORD PTR [rbp-0x20],eax
  40079d:	bf 0a 00 00 00       	mov    edi,0xa
  4007a2:	e8 29 fd ff ff       	call   4004d0 <putchar@plt>
  4007a7:	81 7d e0 26 00 00 18 	cmp    DWORD PTR [rbp-0x20],0x18000026
  4007ae:	75 0c                	jne    4007bc <main+0x61>
  4007b0:	bf 31 0d 40 00       	mov    edi,0x400d31
  4007b5:	e8 26 fd ff ff       	call   4004e0 <puts@plt>
  4007ba:	eb 0a                	jmp    4007c6 <main+0x6b>
  4007bc:	bf 41 0d 40 00       	mov    edi,0x400d41
  4007c1:	e8 1a fd ff ff       	call   4004e0 <puts@plt>
  4007c6:	8b 45 e0             	mov    eax,DWORD PTR [rbp-0x20]
  4007c9:	89 c6                	mov    esi,eax
  4007cb:	bf 55 0d 40 00       	mov    edi,0x400d55
  4007d0:	b8 00 00 00 00       	mov    eax,0x0
  4007d5:	e8 16 fd ff ff       	call   4004f0 <printf@plt>
  4007da:	bf 0a 00 00 00       	mov    edi,0xa
  4007df:	e8 ec fc ff ff       	call   4004d0 <putchar@plt>
  4007e4:	48 8b 45 f0          	mov    rax,QWORD PTR [rbp-0x10]
  4007e8:	48 89 05 f1 1e 20 00 	mov    QWORD PTR [rip+0x201ef1],rax        # 6026e0 <ymmA>
  4007ef:	48 8b 05 ea 1e 20 00 	mov    rax,QWORD PTR [rip+0x201eea]        # 6026e0 <ymmA>
  4007f6:	48 83 c0 20          	add    rax,0x20
  4007fa:	48 89 05 bf 1e 20 00 	mov    QWORD PTR [rip+0x201ebf],rax        # 6026c0 <ymmB>
  400801:	48 8b 05 b8 1e 20 00 	mov    rax,QWORD PTR [rip+0x201eb8]        # 6026c0 <ymmB>
  400808:	48 83 c0 20          	add    rax,0x20
  40080c:	48 89 05 dd 1e 20 00 	mov    QWORD PTR [rip+0x201edd],rax        # 6026f0 <ymmC>
  400813:	48 8b 05 d6 1e 20 00 	mov    rax,QWORD PTR [rip+0x201ed6]        # 6026f0 <ymmC>
  40081a:	48 83 c0 20          	add    rax,0x20
  40081e:	48 89 05 ab 1e 20 00 	mov    QWORD PTR [rip+0x201eab],rax        # 6026d0 <ymmD>
  400825:	48 8b 05 a4 1e 20 00 	mov    rax,QWORD PTR [rip+0x201ea4]        # 6026d0 <ymmD>
  40082c:	48 83 c0 20          	add    rax,0x20
  400830:	48 89 05 b1 1e 20 00 	mov    QWORD PTR [rip+0x201eb1],rax        # 6026e8 <ymmE>
  400837:	48 8b 05 aa 1e 20 00 	mov    rax,QWORD PTR [rip+0x201eaa]        # 6026e8 <ymmE>
  40083e:	48 83 c0 20          	add    rax,0x20
  400842:	48 89 05 7f 1e 20 00 	mov    QWORD PTR [rip+0x201e7f],rax        # 6026c8 <ymmF>
  400849:	48 8b 05 78 1e 20 00 	mov    rax,QWORD PTR [rip+0x201e78]        # 6026c8 <ymmF>
  400850:	48 83 c0 20          	add    rax,0x20
  400854:	48 89 05 7d 1e 20 00 	mov    QWORD PTR [rip+0x201e7d],rax        # 6026d8 <ymmG>
  40085b:	48 8b 05 76 1e 20 00 	mov    rax,QWORD PTR [rip+0x201e76]        # 6026d8 <ymmG>
  400862:	48 83 c0 20          	add    rax,0x20
  400866:	48 89 05 f3 1b 20 00 	mov    QWORD PTR [rip+0x201bf3],rax        # 602460 <ymmH>
  40086d:	c7 45 dc 00 00 00 00 	mov    DWORD PTR [rbp-0x24],0x0
  400874:	e9 82 00 00 00       	jmp    4008fb <main+0x1a0>
  400879:	8b 45 dc             	mov    eax,DWORD PTR [rbp-0x24]
  40087c:	48 98                	cdqe   
  40087e:	48 8d 14 85 00 00 00 	lea    rdx,[rax*4+0x0]
  400885:	00 
  400886:	48 8b 45 f0          	mov    rax,QWORD PTR [rbp-0x10]
  40088a:	48 01 d0             	add    rax,rdx
  40088d:	f2 0f 2a 45 dc       	cvtsi2sd xmm0,DWORD PTR [rbp-0x24]
  400892:	f2 0f 10 0d 16 05 00 	movsd  xmm1,QWORD PTR [rip+0x516]        # 400db0 <_IO_stdin_used+0x90>
  400899:	00 
  40089a:	f2 0f 58 c1          	addsd  xmm0,xmm1
  40089e:	66 0f 14 c0          	unpcklpd xmm0,xmm0
  4008a2:	66 0f 5a c0          	cvtpd2ps xmm0,xmm0
  4008a6:	f3 0f 11 00          	movss  DWORD PTR [rax],xmm0
  4008aa:	8b 45 dc             	mov    eax,DWORD PTR [rbp-0x24]
  4008ad:	8d 50 07             	lea    edx,[rax+0x7]
  4008b0:	85 c0                	test   eax,eax
  4008b2:	0f 48 c2             	cmovs  eax,edx
  4008b5:	c1 f8 03             	sar    eax,0x3
  4008b8:	88 45 db             	mov    BYTE PTR [rbp-0x25],al
  4008bb:	8b 45 dc             	mov    eax,DWORD PTR [rbp-0x24]
  4008be:	99                   	cdq    
  4008bf:	c1 ea 1d             	shr    edx,0x1d
  4008c2:	01 d0                	add    eax,edx
  4008c4:	83 e0 07             	and    eax,0x7
  4008c7:	29 d0                	sub    eax,edx
  4008c9:	89 45 e4             	mov    DWORD PTR [rbp-0x1c],eax
  4008cc:	0f be 45 db          	movsx  eax,BYTE PTR [rbp-0x25]
  4008d0:	8b 55 dc             	mov    edx,DWORD PTR [rbp-0x24]
  4008d3:	48 63 d2             	movsxd rdx,edx
  4008d6:	48 c1 e2 04          	shl    rdx,0x4
  4008da:	48 8d ba 60 20 60 00 	lea    rdi,[rdx+0x602060]
  4008e1:	8b 55 e4             	mov    edx,DWORD PTR [rbp-0x1c]
  4008e4:	89 d1                	mov    ecx,edx
  4008e6:	89 c2                	mov    edx,eax
  4008e8:	be 6d 0d 40 00       	mov    esi,0x400d6d
  4008ed:	b8 00 00 00 00       	mov    eax,0x0
  4008f2:	e8 29 fc ff ff       	call   400520 <sprintf@plt>
  4008f7:	83 45 dc 01          	add    DWORD PTR [rbp-0x24],0x1
  4008fb:	83 7d dc 3f          	cmp    DWORD PTR [rbp-0x24],0x3f
  4008ff:	0f 8e 74 ff ff ff    	jle    400879 <main+0x11e>
  400905:	48 c7 45 f8 00 00 00 	mov    QWORD PTR [rbp-0x8],0x0
  40090c:	00 
  40090d:	be 73 0d 40 00       	mov    esi,0x400d73
  400912:	bf 78 0d 40 00       	mov    edi,0x400d78
  400917:	b8 00 00 00 00       	mov    eax,0x0
  40091c:	e8 cf fb ff ff       	call   4004f0 <printf@plt>
  400921:	48 8b 05 b8 1d 20 00 	mov    rax,QWORD PTR [rip+0x201db8]        # 6026e0 <ymmA>
  400928:	48 89 c7             	mov    rdi,rax
  40092b:	e8 10 fd ff ff       	call   400640 <dump_reg_ymm>
  400930:	be 7e 0d 40 00       	mov    esi,0x400d7e
  400935:	bf 78 0d 40 00       	mov    edi,0x400d78
  40093a:	b8 00 00 00 00       	mov    eax,0x0
  40093f:	e8 ac fb ff ff       	call   4004f0 <printf@plt>
  400944:	48 8b 05 75 1d 20 00 	mov    rax,QWORD PTR [rip+0x201d75]        # 6026c0 <ymmB>
  40094b:	48 89 c7             	mov    rdi,rax
  40094e:	e8 ed fc ff ff       	call   400640 <dump_reg_ymm>
  400953:	be 83 0d 40 00       	mov    esi,0x400d83
  400958:	bf 78 0d 40 00       	mov    edi,0x400d78
  40095d:	b8 00 00 00 00       	mov    eax,0x0
  400962:	e8 89 fb ff ff       	call   4004f0 <printf@plt>
  400967:	48 8b 05 82 1d 20 00 	mov    rax,QWORD PTR [rip+0x201d82]        # 6026f0 <ymmC>
  40096e:	48 89 c7             	mov    rdi,rax
  400971:	e8 ca fc ff ff       	call   400640 <dump_reg_ymm>
  400976:	be 88 0d 40 00       	mov    esi,0x400d88
  40097b:	bf 78 0d 40 00       	mov    edi,0x400d78
  400980:	b8 00 00 00 00       	mov    eax,0x0
  400985:	e8 66 fb ff ff       	call   4004f0 <printf@plt>
  40098a:	48 8b 05 3f 1d 20 00 	mov    rax,QWORD PTR [rip+0x201d3f]        # 6026d0 <ymmD>
  400991:	48 89 c7             	mov    rdi,rax
  400994:	e8 a7 fc ff ff       	call   400640 <dump_reg_ymm>
  400999:	be 8d 0d 40 00       	mov    esi,0x400d8d
  40099e:	bf 78 0d 40 00       	mov    edi,0x400d78
  4009a3:	b8 00 00 00 00       	mov    eax,0x0
  4009a8:	e8 43 fb ff ff       	call   4004f0 <printf@plt>
  4009ad:	48 8b 05 34 1d 20 00 	mov    rax,QWORD PTR [rip+0x201d34]        # 6026e8 <ymmE>
  4009b4:	48 89 c7             	mov    rdi,rax
  4009b7:	e8 84 fc ff ff       	call   400640 <dump_reg_ymm>
  4009bc:	be 92 0d 40 00       	mov    esi,0x400d92
  4009c1:	bf 78 0d 40 00       	mov    edi,0x400d78
  4009c6:	b8 00 00 00 00       	mov    eax,0x0
  4009cb:	e8 20 fb ff ff       	call   4004f0 <printf@plt>
  4009d0:	48 8b 05 f1 1c 20 00 	mov    rax,QWORD PTR [rip+0x201cf1]        # 6026c8 <ymmF>
  4009d7:	48 89 c7             	mov    rdi,rax
  4009da:	e8 61 fc ff ff       	call   400640 <dump_reg_ymm>
  4009df:	be 97 0d 40 00       	mov    esi,0x400d97
  4009e4:	bf 78 0d 40 00       	mov    edi,0x400d78
  4009e9:	b8 00 00 00 00       	mov    eax,0x0
  4009ee:	e8 fd fa ff ff       	call   4004f0 <printf@plt>
  4009f3:	48 8b 05 de 1c 20 00 	mov    rax,QWORD PTR [rip+0x201cde]        # 6026d8 <ymmG>
  4009fa:	48 89 c7             	mov    rdi,rax
  4009fd:	e8 3e fc ff ff       	call   400640 <dump_reg_ymm>
  400a02:	be 9c 0d 40 00       	mov    esi,0x400d9c
  400a07:	bf 78 0d 40 00       	mov    edi,0x400d78
  400a0c:	b8 00 00 00 00       	mov    eax,0x0
  400a11:	e8 da fa ff ff       	call   4004f0 <printf@plt>
  400a16:	48 8b 05 43 1a 20 00 	mov    rax,QWORD PTR [rip+0x201a43]        # 602460 <ymmH>
  400a1d:	48 89 c7             	mov    rdi,rax
  400a20:	e8 1b fc ff ff       	call   400640 <dump_reg_ymm>
  400a25:	bf a1 0d 40 00       	mov    edi,0x400da1
  400a2a:	e8 b1 fa ff ff       	call   4004e0 <puts@plt>
  400a2f:	48 8b 05 aa 1c 20 00 	mov    rax,QWORD PTR [rip+0x201caa]        # 6026e0 <ymmA>
  400a36:	c5 fe 6f 00          	vmovdqu ymm0,YMMWORD PTR [rax]
  400a3a:	48 8b 05 7f 1c 20 00 	mov    rax,QWORD PTR [rip+0x201c7f]        # 6026c0 <ymmB>
  400a41:	c5 fe 6f 08          	vmovdqu ymm1,YMMWORD PTR [rax]
  400a45:	48 8b 05 a4 1c 20 00 	mov    rax,QWORD PTR [rip+0x201ca4]        # 6026f0 <ymmC>
  400a4c:	c5 fe 6f 10          	vmovdqu ymm2,YMMWORD PTR [rax]
  400a50:	48 8b 05 79 1c 20 00 	mov    rax,QWORD PTR [rip+0x201c79]        # 6026d0 <ymmD>
  400a57:	c5 fe 6f 18          	vmovdqu ymm3,YMMWORD PTR [rax]
  400a5b:	48 8b 05 86 1c 20 00 	mov    rax,QWORD PTR [rip+0x201c86]        # 6026e8 <ymmE>
  400a62:	c5 fe 6f 20          	vmovdqu ymm4,YMMWORD PTR [rax]
  400a66:	48 8b 05 5b 1c 20 00 	mov    rax,QWORD PTR [rip+0x201c5b]        # 6026c8 <ymmF>
  400a6d:	c5 fe 6f 28          	vmovdqu ymm5,YMMWORD PTR [rax]
  400a71:	48 8b 05 60 1c 20 00 	mov    rax,QWORD PTR [rip+0x201c60]        # 6026d8 <ymmG>
  400a78:	c5 fe 6f 30          	vmovdqu ymm6,YMMWORD PTR [rax]
  400a7c:	48 8b 05 dd 19 20 00 	mov    rax,QWORD PTR [rip+0x2019dd]        # 602460 <ymmH>
  400a83:	c5 fe 6f 38          	vmovdqu ymm7,YMMWORD PTR [rax]
  400a87:	c5 6c 14 d3          	vunpcklps ymm10,ymm2,ymm3
  400a8b:	c5 6c 15 db          	vunpckhps ymm11,ymm2,ymm3
  400a8f:	c5 7c 14 c1          	vunpcklps ymm8,ymm0,ymm1
  400a93:	c5 7c 15 c9          	vunpckhps ymm9,ymm0,ymm1
  400a97:	c4 c1 3d 6c c2       	vpunpcklqdq ymm0,ymm8,ymm10
  400a9c:	c4 c1 3d 6d d2       	vpunpckhqdq ymm2,ymm8,ymm10
  400aa1:	c4 c1 35 6c cb       	vpunpcklqdq ymm1,ymm9,ymm11
  400aa6:	c4 c1 35 6d db       	vpunpckhqdq ymm3,ymm9,ymm11
  400aab:	c5 4c 14 d7          	vunpcklps ymm10,ymm6,ymm7
  400aaf:	c5 4c 15 df          	vunpckhps ymm11,ymm6,ymm7
  400ab3:	c5 5c 14 c5          	vunpcklps ymm8,ymm4,ymm5
  400ab7:	c5 5c 15 cd          	vunpckhps ymm9,ymm4,ymm5
  400abb:	c4 c1 3d 6c e2       	vpunpcklqdq ymm4,ymm8,ymm10
  400ac0:	c4 c1 3d 6d f2       	vpunpckhqdq ymm6,ymm8,ymm10
  400ac5:	c4 c1 35 6c eb       	vpunpcklqdq ymm5,ymm9,ymm11
  400aca:	c4 c1 35 6d fb       	vpunpckhqdq ymm7,ymm9,ymm11
  400acf:	c4 63 7d 46 c4 20    	vperm2i128 ymm8,ymm0,ymm4,0x20
  400ad5:	c4 63 7d 46 e4 31    	vperm2i128 ymm12,ymm0,ymm4,0x31
  400adb:	c4 63 75 46 d5 20    	vperm2i128 ymm10,ymm1,ymm5,0x20
  400ae1:	c4 63 75 46 f5 31    	vperm2i128 ymm14,ymm1,ymm5,0x31
  400ae7:	c4 63 6d 46 ce 20    	vperm2i128 ymm9,ymm2,ymm6,0x20
  400aed:	c4 63 6d 46 ee 31    	vperm2i128 ymm13,ymm2,ymm6,0x31
  400af3:	c4 63 65 46 df 20    	vperm2i128 ymm11,ymm3,ymm7,0x20
  400af9:	c4 63 65 46 ff 31    	vperm2i128 ymm15,ymm3,ymm7,0x31
  400aff:	48 8b 05 da 1b 20 00 	mov    rax,QWORD PTR [rip+0x201bda]        # 6026e0 <ymmA>
  400b06:	c5 7e 7f 00          	vmovdqu YMMWORD PTR [rax],ymm8
  400b0a:	48 8b 05 af 1b 20 00 	mov    rax,QWORD PTR [rip+0x201baf]        # 6026c0 <ymmB>
  400b11:	c5 7e 7f 08          	vmovdqu YMMWORD PTR [rax],ymm9
  400b15:	48 8b 05 d4 1b 20 00 	mov    rax,QWORD PTR [rip+0x201bd4]        # 6026f0 <ymmC>
  400b1c:	c5 7e 7f 10          	vmovdqu YMMWORD PTR [rax],ymm10
  400b20:	48 8b 05 a9 1b 20 00 	mov    rax,QWORD PTR [rip+0x201ba9]        # 6026d0 <ymmD>
  400b27:	c5 7e 7f 18          	vmovdqu YMMWORD PTR [rax],ymm11
  400b2b:	48 8b 05 b6 1b 20 00 	mov    rax,QWORD PTR [rip+0x201bb6]        # 6026e8 <ymmE>
  400b32:	c5 7e 7f 20          	vmovdqu YMMWORD PTR [rax],ymm12
  400b36:	48 8b 05 8b 1b 20 00 	mov    rax,QWORD PTR [rip+0x201b8b]        # 6026c8 <ymmF>
  400b3d:	c5 7e 7f 28          	vmovdqu YMMWORD PTR [rax],ymm13
  400b41:	48 8b 05 90 1b 20 00 	mov    rax,QWORD PTR [rip+0x201b90]        # 6026d8 <ymmG>
  400b48:	c5 7e 7f 30          	vmovdqu YMMWORD PTR [rax],ymm14
  400b4c:	48 8b 05 0d 19 20 00 	mov    rax,QWORD PTR [rip+0x20190d]        # 602460 <ymmH>
  400b53:	c5 7e 7f 38          	vmovdqu YMMWORD PTR [rax],ymm15
  400b57:	be 73 0d 40 00       	mov    esi,0x400d73
  400b5c:	bf 78 0d 40 00       	mov    edi,0x400d78
  400b61:	b8 00 00 00 00       	mov    eax,0x0
  400b66:	e8 85 f9 ff ff       	call   4004f0 <printf@plt>
  400b6b:	48 8b 05 6e 1b 20 00 	mov    rax,QWORD PTR [rip+0x201b6e]        # 6026e0 <ymmA>
  400b72:	48 89 c7             	mov    rdi,rax
  400b75:	e8 c6 fa ff ff       	call   400640 <dump_reg_ymm>
  400b7a:	be 7e 0d 40 00       	mov    esi,0x400d7e
  400b7f:	bf 78 0d 40 00       	mov    edi,0x400d78
  400b84:	b8 00 00 00 00       	mov    eax,0x0
  400b89:	e8 62 f9 ff ff       	call   4004f0 <printf@plt>
  400b8e:	48 8b 05 2b 1b 20 00 	mov    rax,QWORD PTR [rip+0x201b2b]        # 6026c0 <ymmB>
  400b95:	48 89 c7             	mov    rdi,rax
  400b98:	e8 a3 fa ff ff       	call   400640 <dump_reg_ymm>
  400b9d:	be 83 0d 40 00       	mov    esi,0x400d83
  400ba2:	bf 78 0d 40 00       	mov    edi,0x400d78
  400ba7:	b8 00 00 00 00       	mov    eax,0x0
  400bac:	e8 3f f9 ff ff       	call   4004f0 <printf@plt>
  400bb1:	48 8b 05 38 1b 20 00 	mov    rax,QWORD PTR [rip+0x201b38]        # 6026f0 <ymmC>
  400bb8:	48 89 c7             	mov    rdi,rax
  400bbb:	e8 80 fa ff ff       	call   400640 <dump_reg_ymm>
  400bc0:	be 88 0d 40 00       	mov    esi,0x400d88
  400bc5:	bf 78 0d 40 00       	mov    edi,0x400d78
  400bca:	b8 00 00 00 00       	mov    eax,0x0
  400bcf:	e8 1c f9 ff ff       	call   4004f0 <printf@plt>
  400bd4:	48 8b 05 f5 1a 20 00 	mov    rax,QWORD PTR [rip+0x201af5]        # 6026d0 <ymmD>
  400bdb:	48 89 c7             	mov    rdi,rax
  400bde:	e8 5d fa ff ff       	call   400640 <dump_reg_ymm>
  400be3:	be 8d 0d 40 00       	mov    esi,0x400d8d
  400be8:	bf 78 0d 40 00       	mov    edi,0x400d78
  400bed:	b8 00 00 00 00       	mov    eax,0x0
  400bf2:	e8 f9 f8 ff ff       	call   4004f0 <printf@plt>
  400bf7:	48 8b 05 ea 1a 20 00 	mov    rax,QWORD PTR [rip+0x201aea]        # 6026e8 <ymmE>
  400bfe:	48 89 c7             	mov    rdi,rax
  400c01:	e8 3a fa ff ff       	call   400640 <dump_reg_ymm>
  400c06:	be 92 0d 40 00       	mov    esi,0x400d92
  400c0b:	bf 78 0d 40 00       	mov    edi,0x400d78
  400c10:	b8 00 00 00 00       	mov    eax,0x0
  400c15:	e8 d6 f8 ff ff       	call   4004f0 <printf@plt>
  400c1a:	48 8b 05 a7 1a 20 00 	mov    rax,QWORD PTR [rip+0x201aa7]        # 6026c8 <ymmF>
  400c21:	48 89 c7             	mov    rdi,rax
  400c24:	e8 17 fa ff ff       	call   400640 <dump_reg_ymm>
  400c29:	be 97 0d 40 00       	mov    esi,0x400d97
  400c2e:	bf 78 0d 40 00       	mov    edi,0x400d78
  400c33:	b8 00 00 00 00       	mov    eax,0x0
  400c38:	e8 b3 f8 ff ff       	call   4004f0 <printf@plt>
  400c3d:	48 8b 05 94 1a 20 00 	mov    rax,QWORD PTR [rip+0x201a94]        # 6026d8 <ymmG>
  400c44:	48 89 c7             	mov    rdi,rax
  400c47:	e8 f4 f9 ff ff       	call   400640 <dump_reg_ymm>
  400c4c:	be 9c 0d 40 00       	mov    esi,0x400d9c
  400c51:	bf 78 0d 40 00       	mov    edi,0x400d78
  400c56:	b8 00 00 00 00       	mov    eax,0x0
  400c5b:	e8 90 f8 ff ff       	call   4004f0 <printf@plt>
  400c60:	48 8b 05 f9 17 20 00 	mov    rax,QWORD PTR [rip+0x2017f9]        # 602460 <ymmH>
  400c67:	48 89 c7             	mov    rdi,rax
  400c6a:	e8 d1 f9 ff ff       	call   400640 <dump_reg_ymm>
  400c6f:	90                   	nop
  400c70:	c9                   	leave  
  400c71:	c3                   	ret    
  400c72:	90                   	nop
  400c73:	90                   	nop
  400c74:	90                   	nop
  400c75:	90                   	nop
  400c76:	90                   	nop
  400c77:	90                   	nop
  400c78:	90                   	nop
  400c79:	90                   	nop
  400c7a:	90                   	nop
  400c7b:	90                   	nop
  400c7c:	90                   	nop
  400c7d:	90                   	nop
  400c7e:	90                   	nop
  400c7f:	90                   	nop

0000000000400c80 <__libc_csu_init>:
  400c80:	48 89 6c 24 d8       	mov    QWORD PTR [rsp-0x28],rbp
  400c85:	4c 89 64 24 e0       	mov    QWORD PTR [rsp-0x20],r12
  400c8a:	48 8d 2d 6f 11 20 00 	lea    rbp,[rip+0x20116f]        # 601e00 <__init_array_end>
  400c91:	4c 8d 25 60 11 20 00 	lea    r12,[rip+0x201160]        # 601df8 <__frame_dummy_init_array_entry>
  400c98:	4c 89 6c 24 e8       	mov    QWORD PTR [rsp-0x18],r13
  400c9d:	4c 89 74 24 f0       	mov    QWORD PTR [rsp-0x10],r14
  400ca2:	4c 89 7c 24 f8       	mov    QWORD PTR [rsp-0x8],r15
  400ca7:	48 89 5c 24 d0       	mov    QWORD PTR [rsp-0x30],rbx
  400cac:	48 83 ec 38          	sub    rsp,0x38
  400cb0:	4c 29 e5             	sub    rbp,r12
  400cb3:	41 89 fd             	mov    r13d,edi
  400cb6:	49 89 f6             	mov    r14,rsi
  400cb9:	48 c1 fd 03          	sar    rbp,0x3
  400cbd:	49 89 d7             	mov    r15,rdx
  400cc0:	e8 e3 f7 ff ff       	call   4004a8 <_init>
  400cc5:	48 85 ed             	test   rbp,rbp
  400cc8:	74 1c                	je     400ce6 <__libc_csu_init+0x66>
  400cca:	31 db                	xor    ebx,ebx
  400ccc:	0f 1f 40 00          	nop    DWORD PTR [rax+0x0]
  400cd0:	4c 89 fa             	mov    rdx,r15
  400cd3:	4c 89 f6             	mov    rsi,r14
  400cd6:	44 89 ef             	mov    edi,r13d
  400cd9:	41 ff 14 dc          	call   QWORD PTR [r12+rbx*8]
  400cdd:	48 83 c3 01          	add    rbx,0x1
  400ce1:	48 39 eb             	cmp    rbx,rbp
  400ce4:	75 ea                	jne    400cd0 <__libc_csu_init+0x50>
  400ce6:	48 8b 5c 24 08       	mov    rbx,QWORD PTR [rsp+0x8]
  400ceb:	48 8b 6c 24 10       	mov    rbp,QWORD PTR [rsp+0x10]
  400cf0:	4c 8b 64 24 18       	mov    r12,QWORD PTR [rsp+0x18]
  400cf5:	4c 8b 6c 24 20       	mov    r13,QWORD PTR [rsp+0x20]
  400cfa:	4c 8b 74 24 28       	mov    r14,QWORD PTR [rsp+0x28]
  400cff:	4c 8b 7c 24 30       	mov    r15,QWORD PTR [rsp+0x30]
  400d04:	48 83 c4 38          	add    rsp,0x38
  400d08:	c3                   	ret    
  400d09:	0f 1f 80 00 00 00 00 	nop    DWORD PTR [rax+0x0]

0000000000400d10 <__libc_csu_fini>:
  400d10:	f3 c3                	repz ret 
  400d12:	90                   	nop
  400d13:	90                   	nop

Disassembly of section .fini:

0000000000400d14 <_fini>:
  400d14:	48 83 ec 08          	sub    rsp,0x8
  400d18:	48 83 c4 08          	add    rsp,0x8
  400d1c:	c3                   	ret    
